; ModuleID = '50/2091.c'
source_filename = "50/2091.c"
target datalayout = "e-m:e-p270:32:32-p271:32:32-p272:64:64-i64:64-f80:128-n8:16:32:64-S128"
target triple = "x86_64-pc-linux-gnu"

@.str = private unnamed_addr constant [3 x i8] c"%d\00", align 1
@.str.1 = private unnamed_addr constant [4 x i8] c"%d\0A\00", align 1

; Function Attrs: noinline nounwind uwtable
define dso_local i32 @main() #0 {
  %1 = alloca i32, align 4
  %2 = alloca i32, align 4
  %3 = alloca i32, align 4
  %4 = alloca i32, align 4
  %5 = alloca i32, align 4
  %6 = alloca i32, align 4
  %7 = alloca [13 x i32], align 16
  store i32 0, i32* %1, align 4
  store i32 12, i32* %6, align 4
  %8 = call i32 (i8*, ...) @__isoc99_scanf(i8* getelementptr inbounds ([3 x i8], [3 x i8]* @.str, i64 0, i64 0), i32* %5)
  %9 = getelementptr inbounds [13 x i32], [13 x i32]* %7, i64 0, i64 1
  store i32 31, i32* %9, align 4
  %10 = getelementptr inbounds [13 x i32], [13 x i32]* %7, i64 0, i64 3
  store i32 31, i32* %10, align 4
  %11 = getelementptr inbounds [13 x i32], [13 x i32]* %7, i64 0, i64 5
  store i32 31, i32* %11, align 4
  %12 = getelementptr inbounds [13 x i32], [13 x i32]* %7, i64 0, i64 7
  store i32 31, i32* %12, align 4
  %13 = getelementptr inbounds [13 x i32], [13 x i32]* %7, i64 0, i64 8
  store i32 31, i32* %13, align 16
  %14 = getelementptr inbounds [13 x i32], [13 x i32]* %7, i64 0, i64 10
  store i32 31, i32* %14, align 8
  %15 = getelementptr inbounds [13 x i32], [13 x i32]* %7, i64 0, i64 12
  store i32 31, i32* %15, align 16
  %16 = getelementptr inbounds [13 x i32], [13 x i32]* %7, i64 0, i64 4
  store i32 30, i32* %16, align 16
  %17 = getelementptr inbounds [13 x i32], [13 x i32]* %7, i64 0, i64 6
  store i32 30, i32* %17, align 8
  %18 = getelementptr inbounds [13 x i32], [13 x i32]* %7, i64 0, i64 9
  store i32 30, i32* %18, align 4
  %19 = getelementptr inbounds [13 x i32], [13 x i32]* %7, i64 0, i64 11
  store i32 30, i32* %19, align 4
  %20 = getelementptr inbounds [13 x i32], [13 x i32]* %7, i64 0, i64 2
  store i32 28, i32* %20, align 8
  %21 = getelementptr inbounds [13 x i32], [13 x i32]* %7, i64 0, i64 0
  store i32 0, i32* %21, align 16
  store i32 1, i32* %4, align 4
  br label %22

22:                                               ; preds = %64, %0
  %23 = load i32, i32* %4, align 4
  %24 = icmp slt i32 %23, 13
  br i1 %24, label %25, label %67

25:                                               ; preds = %22
  %26 = load i32, i32* %4, align 4
  %27 = sub nsw i32 %26, 1
  %28 = sext i32 %27 to i64
  %29 = getelementptr inbounds [13 x i32], [13 x i32]* %7, i64 0, i64 %28
  %30 = load i32, i32* %29, align 4
  %31 = load i32, i32* %6, align 4
  %32 = add nsw i32 %31, %30
  store i32 %32, i32* %6, align 4
  %33 = load i32, i32* %5, align 4
  %34 = icmp slt i32 %33, 6
  br i1 %34, label %35, label %47

35:                                               ; preds = %25
  %36 = load i32, i32* %5, align 4
  %37 = icmp sgt i32 %36, 0
  br i1 %37, label %38, label %47

38:                                               ; preds = %35
  %39 = load i32, i32* %6, align 4
  %40 = srem i32 %39, 7
  %41 = load i32, i32* %5, align 4
  %42 = sub nsw i32 5, %41
  %43 = icmp eq i32 %40, %42
  br i1 %43, label %44, label %47

44:                                               ; preds = %38
  %45 = load i32, i32* %4, align 4
  %46 = call i32 (i8*, ...) @printf(i8* getelementptr inbounds ([4 x i8], [4 x i8]* @.str.1, i64 0, i64 0), i32 %45)
  br label %63

47:                                               ; preds = %38, %35, %25
  %48 = load i32, i32* %5, align 4
  %49 = icmp slt i32 %48, 8
  br i1 %49, label %50, label %62

50:                                               ; preds = %47
  %51 = load i32, i32* %5, align 4
  %52 = icmp sgt i32 %51, 5
  br i1 %52, label %53, label %62

53:                                               ; preds = %50
  %54 = load i32, i32* %6, align 4
  %55 = srem i32 %54, 7
  %56 = load i32, i32* %5, align 4
  %57 = sub nsw i32 12, %56
  %58 = icmp eq i32 %55, %57
  br i1 %58, label %59, label %62

59:                                               ; preds = %53
  %60 = load i32, i32* %4, align 4
  %61 = call i32 (i8*, ...) @printf(i8* getelementptr inbounds ([4 x i8], [4 x i8]* @.str.1, i64 0, i64 0), i32 %60)
  br label %62

62:                                               ; preds = %59, %53, %50, %47
  br label %63

63:                                               ; preds = %62, %44
  br label %64

64:                                               ; preds = %63
  %65 = load i32, i32* %4, align 4
  %66 = add nsw i32 %65, 1
  store i32 %66, i32* %4, align 4
  br label %22

67:                                               ; preds = %22
  ret i32 0
}

declare dso_local i32 @__isoc99_scanf(i8*, ...) #1

declare dso_local i32 @printf(i8*, ...) #1


!llvm.module.flags = !{!0}
!llvm.ident = !{!1}

!0 = !{i32 1, !"wchar_size", i32 4}
!1 = !{!"clang version 10.0.0-4ubuntu1 "}
